; Function Attrs: nounwind uwtable
define dso_local i64 @_PyUnicode_ScanIdentifier(ptr noundef readonly captures(none) %0) local_unnamed_addr #0 {
  %2 = getelementptr i8, ptr %0, i64 16
  %.val = load i64, ptr %2, align 8, !tbaa !197
  %3 = icmp eq i64 %.val, 0
  br i1 %3, label %.loopexit, label %4

4:                                                ; preds = %1
  %5 = getelementptr inbounds nuw i8, ptr %0, i64 34
  %6 = load i16, ptr %5, align 2
  %7 = and i16 %6, 7
  %8 = and i16 %6, 8
  %.not.i = icmp eq i16 %8, 0
  br i1 %.not.i, label %11, label %9

9:                                                ; preds = %4
  %10 = and i16 %6, 16
  %.not.i.i = icmp eq i16 %10, 0
  %.0.v.i.i = select i1 %.not.i.i, i64 56, i64 40
  %.0.i.i = getelementptr i8, ptr %0, i64 %.0.v.i.i
  br label %_PyUnicode_DATA.exit

11:                                               ; preds = %4
  %12 = getelementptr i8, ptr %0, i64 56
  %.val4.i = load ptr, ptr %12, align 8, !tbaa !195
  br label %_PyUnicode_DATA.exit

_PyUnicode_DATA.exit:                             ; preds = %9, %11
  %.0.i = phi ptr [ %.0.i.i, %9 ], [ %.val4.i, %11 ]
  switch i16 %7, label %19 [
    i16 1, label %13
    i16 2, label %16
  ]

13:                                               ; preds = %_PyUnicode_DATA.exit
  %14 = load i8, ptr %.0.i, align 1, !tbaa !195
  %15 = zext i8 %14 to i32
  br label %PyUnicode_READ.exit

16:                                               ; preds = %_PyUnicode_DATA.exit
  %17 = load i16, ptr %.0.i, align 2, !tbaa !199
  %18 = zext i16 %17 to i32
  br label %PyUnicode_READ.exit

19:                                               ; preds = %_PyUnicode_DATA.exit
  %20 = load i32, ptr %.0.i, align 4, !tbaa !200
  br label %PyUnicode_READ.exit

PyUnicode_READ.exit:                              ; preds = %13, %16, %19
  %.0.i20 = phi i32 [ %15, %13 ], [ %18, %16 ], [ %20, %19 ]
  %21 = tail call i32 @_PyUnicode_IsXidStart(i32 noundef %.0.i20) #41
  %22 = icmp eq i32 %21, 0
  %23 = icmp ne i32 %.0.i20, 95
  %or.cond = and i1 %23, %22
  br i1 %or.cond, label %.loopexit, label %.preheader

.preheader:                                       ; preds = %PyUnicode_READ.exit
  %24 = icmp sgt i64 %.val, 1
  br i1 %24, label %.lr.ph, label %.loopexit

.lr.ph:                                           ; preds = %.preheader
  switch i16 %7, label %PyUnicode_READ.exit22 [
    i16 1, label %PyUnicode_READ.exit22.us
    i16 2, label %PyUnicode_READ.exit22.us28
  ]

PyUnicode_READ.exit22.us:                         ; preds = %.lr.ph, %29
  %.01823.us = phi i64 [ %30, %29 ], [ 1, %.lr.ph ]
  %25 = getelementptr i8, ptr %.0.i, i64 %.01823.us
  %26 = load i8, ptr %25, align 1, !tbaa !195
  %27 = zext i8 %26 to i32
  %28 = tail call i32 @_PyUnicode_IsXidContinue(i32 noundef %27) #41
  %.not.us = icmp eq i32 %28, 0
  br i1 %.not.us, label %.loopexit, label %29

29:                                               ; preds = %PyUnicode_READ.exit22.us
  %30 = add nuw nsw i64 %.01823.us, 1
  %exitcond39.not = icmp eq i64 %30, %.val
  br i1 %exitcond39.not, label %.loopexit, label %PyUnicode_READ.exit22.us, !llvm.loop !392

PyUnicode_READ.exit22.us28:                       ; preds = %.lr.ph, %35
  %.01823.us27 = phi i64 [ %36, %35 ], [ 1, %.lr.ph ]
  %31 = getelementptr i16, ptr %.0.i, i64 %.01823.us27
  %32 = load i16, ptr %31, align 2, !tbaa !199
  %33 = zext i16 %32 to i32
  %34 = tail call i32 @_PyUnicode_IsXidContinue(i32 noundef %33) #41
  %.not.us30 = icmp eq i32 %34, 0
  br i1 %.not.us30, label %.loopexit, label %35

35:                                               ; preds = %PyUnicode_READ.exit22.us28
  %36 = add nuw nsw i64 %.01823.us27, 1
  %exitcond.not = icmp eq i64 %36, %.val
  br i1 %exitcond.not, label %.loopexit, label %PyUnicode_READ.exit22.us28, !llvm.loop !392

PyUnicode_READ.exit22:                            ; preds = %.lr.ph, %40
  %.01823 = phi i64 [ %41, %40 ], [ 1, %.lr.ph ]
  %37 = getelementptr i32, ptr %.0.i, i64 %.01823
  %38 = load i32, ptr %37, align 4, !tbaa !200
  %39 = tail call i32 @_PyUnicode_IsXidContinue(i32 noundef %38) #41
  %.not = icmp eq i32 %39, 0
  br i1 %.not, label %.loopexit, label %40

40:                                               ; preds = %PyUnicode_READ.exit22
  %41 = add nuw nsw i64 %.01823, 1
  %exitcond40.not = icmp eq i64 %41, %.val
  br i1 %exitcond40.not, label %.loopexit, label %PyUnicode_READ.exit22, !llvm.loop !392

.loopexit:                                        ; preds = %35, %PyUnicode_READ.exit22.us28, %29, %PyUnicode_READ.exit22.us, %40, %PyUnicode_READ.exit22, %.preheader, %PyUnicode_READ.exit, %1
  %.0 = phi i64 [ 0, %1 ], [ 0, %PyUnicode_READ.exit ], [ 1, %.preheader ], [ %.val, %40 ], [ %.01823, %PyUnicode_READ.exit22 ], [ %.val, %29 ], [ %.01823.us, %PyUnicode_READ.exit22.us ], [ %.val, %35 ], [ %.01823.us27, %PyUnicode_READ.exit22.us28 ]
  ret i64 %.0
}